target datalayout = "e-m:e-p270:32:32-p271:32:32-p272:64:64-i64:64-i128:128-f80:128-n8:16:32:64-S128"
target triple = "x86_64-unknown-linux-gnu"

%struct.QemuMutex = type { %union.pthread_mutex_t, i8 }
%union.pthread_mutex_t = type { %struct.__pthread_mutex_s }
%struct.__pthread_mutex_s = type { i32, i32, i32, i32, i32, i16, i16, %struct.__pthread_internal_list }
%struct.__pthread_internal_list = type { ptr, ptr }
%struct.BDRVBlkdebugState = type { i64, i64, i64, i64, i64, i64, ptr, i64, i64, i32, [48 x %struct.anon.10], %struct.anon.11, %struct.anon.12, %struct.QemuMutex }
%struct.anon.10 = type { ptr }
%struct.anon.11 = type { ptr, ptr }
%struct.anon.12 = type { ptr }
%struct.BlkdebugSuspendedReq = type { ptr, ptr, %struct.anon.23 }
%struct.anon.23 = type { ptr, ptr }

@.str.12 = private unnamed_addr constant [25 x i8] c"../qemu/block/blkdebug.c\00", align 1
@qemu_mutex_lock_func = external global ptr, align 8
@.str.54 = private unnamed_addr constant [33 x i8] c"blkdebug: Resuming request '%s'\0A\00", align 1
@__func__.resume_req_by_tag = private unnamed_addr constant [18 x i8] c"resume_req_by_tag\00", align 1
@qtest_allowed = external global i8, align 1

; Function Attrs: nounwind sspstrong uwtable
define internal zeroext i1 @qtest_enabled() #0 {
entry:
  %0 = load i8, ptr @qtest_allowed, align 1
  %tobool = trunc i8 %0 to i1
  ret i1 %tobool
}

; Function Attrs: nounwind sspstrong uwtable
define internal i32 @resume_req_by_tag(ptr noundef %s, ptr noundef %tag, i1 noundef zeroext %all) #0 {
entry:
  %retval = alloca i32, align 4
  %s.addr = alloca ptr, align 8
  %tag.addr = alloca ptr, align 8
  %all.addr = alloca i8, align 1
  %r = alloca ptr, align 8
  %co = alloca ptr, align 8
  %_f = alloca ptr, align 8
  %tmp = alloca ptr, align 8
  %atomic-temp = alloca ptr, align 8
  store ptr %s, ptr %s.addr, align 8
  store ptr %tag, ptr %tag.addr, align 8
  %frombool = zext i1 %all to i8
  store i8 %frombool, ptr %all.addr, align 1
  br label %retry

retry:                                            ; preds = %if.then28, %entry
  %0 = load ptr, ptr %s.addr, align 8
  %suspended_reqs = getelementptr inbounds %struct.BDRVBlkdebugState, ptr %0, i32 0, i32 12
  %lh_first = getelementptr inbounds %struct.anon.12, ptr %suspended_reqs, i32 0, i32 0
  %1 = load ptr, ptr %lh_first, align 8
  store ptr %1, ptr %r, align 8
  br label %for.cond

for.cond:                                         ; preds = %for.inc, %retry
  %2 = load ptr, ptr %r, align 8
  %tobool = icmp ne ptr %2, null
  br i1 %tobool, label %for.body, label %for.end

for.body:                                         ; preds = %for.cond
  %3 = load ptr, ptr %r, align 8
  %tag1 = getelementptr inbounds %struct.BlkdebugSuspendedReq, ptr %3, i32 0, i32 1
  %4 = load ptr, ptr %tag1, align 8
  %5 = load ptr, ptr %tag.addr, align 8
  %call = call i32 @strcmp(ptr noundef %4, ptr noundef %5) #11
  %tobool2 = icmp ne i32 %call, 0
  br i1 %tobool2, label %if.end30, label %if.then

if.then:                                          ; preds = %for.body
  %6 = load ptr, ptr %r, align 8
  %co3 = getelementptr inbounds %struct.BlkdebugSuspendedReq, ptr %6, i32 0, i32 0
  %7 = load ptr, ptr %co3, align 8
  store ptr %7, ptr %co, align 8
  %call4 = call zeroext i1 @qtest_enabled()
  br i1 %call4, label %if.end, label %if.then5

if.then5:                                         ; preds = %if.then
  %8 = load ptr, ptr %r, align 8
  %tag6 = getelementptr inbounds %struct.BlkdebugSuspendedReq, ptr %8, i32 0, i32 1
  %9 = load ptr, ptr %tag6, align 8
  %call7 = call i32 (ptr, ...) @printf(ptr noundef @.str.54, ptr noundef %9)
  br label %if.end

if.end:                                           ; preds = %if.then5, %if.then
  br label %do.body

do.body:                                          ; preds = %if.end
  %10 = load ptr, ptr %r, align 8
  %next = getelementptr inbounds %struct.BlkdebugSuspendedReq, ptr %10, i32 0, i32 2
  %le_next = getelementptr inbounds %struct.anon.23, ptr %next, i32 0, i32 0
  %11 = load ptr, ptr %le_next, align 8
  %cmp = icmp ne ptr %11, null
  br i1 %cmp, label %if.then8, label %if.end14

if.then8:                                         ; preds = %do.body
  %12 = load ptr, ptr %r, align 8
  %next9 = getelementptr inbounds %struct.BlkdebugSuspendedReq, ptr %12, i32 0, i32 2
  %le_prev = getelementptr inbounds %struct.anon.23, ptr %next9, i32 0, i32 1
  %13 = load ptr, ptr %le_prev, align 8
  %14 = load ptr, ptr %r, align 8
  %next10 = getelementptr inbounds %struct.BlkdebugSuspendedReq, ptr %14, i32 0, i32 2
  %le_next11 = getelementptr inbounds %struct.anon.23, ptr %next10, i32 0, i32 0
  %15 = load ptr, ptr %le_next11, align 8
  %next12 = getelementptr inbounds %struct.BlkdebugSuspendedReq, ptr %15, i32 0, i32 2
  %le_prev13 = getelementptr inbounds %struct.anon.23, ptr %next12, i32 0, i32 1
  store ptr %13, ptr %le_prev13, align 8
  br label %if.end14

if.end14:                                         ; preds = %if.then8, %do.body
  %16 = load ptr, ptr %r, align 8
  %next15 = getelementptr inbounds %struct.BlkdebugSuspendedReq, ptr %16, i32 0, i32 2
  %le_next16 = getelementptr inbounds %struct.anon.23, ptr %next15, i32 0, i32 0
  %17 = load ptr, ptr %le_next16, align 8
  %18 = load ptr, ptr %r, align 8
  %next17 = getelementptr inbounds %struct.BlkdebugSuspendedReq, ptr %18, i32 0, i32 2
  %le_prev18 = getelementptr inbounds %struct.anon.23, ptr %next17, i32 0, i32 1
  %19 = load ptr, ptr %le_prev18, align 8
  store ptr %17, ptr %19, align 8
  %20 = load ptr, ptr %r, align 8
  %next19 = getelementptr inbounds %struct.BlkdebugSuspendedReq, ptr %20, i32 0, i32 2
  %le_next20 = getelementptr inbounds %struct.anon.23, ptr %next19, i32 0, i32 0
  store ptr null, ptr %le_next20, align 8
  %21 = load ptr, ptr %r, align 8
  %next21 = getelementptr inbounds %struct.BlkdebugSuspendedReq, ptr %21, i32 0, i32 2
  %le_prev22 = getelementptr inbounds %struct.anon.23, ptr %next21, i32 0, i32 1
  store ptr null, ptr %le_prev22, align 8
  br label %do.end

do.end:                                           ; preds = %if.end14
  %22 = load ptr, ptr %r, align 8
  %tag23 = getelementptr inbounds %struct.BlkdebugSuspendedReq, ptr %22, i32 0, i32 1
  %23 = load ptr, ptr %tag23, align 8
  call void @g_free(ptr noundef %23)
  %24 = load ptr, ptr %r, align 8
  call void @g_free(ptr noundef %24)
  %25 = load ptr, ptr %s.addr, align 8
  %lock = getelementptr inbounds %struct.BDRVBlkdebugState, ptr %25, i32 0, i32 13
  call void @qemu_mutex_unlock_impl(ptr noundef %lock, ptr noundef @.str.12, i32 noundef 914)
  %26 = load ptr, ptr %co, align 8
  call void @qemu_coroutine_enter(ptr noundef %26)
  br label %while.cond

while.cond:                                       ; preds = %do.end25, %do.end
  br i1 false, label %while.body, label %while.end

while.body:                                       ; preds = %while.cond
  br label %do.body24

do.body24:                                        ; preds = %while.body
  call void @g_assertion_message_expr(ptr noundef null, ptr noundef @.str.12, i32 noundef 916, ptr noundef @__func__.resume_req_by_tag, ptr noundef null) #14
  unreachable

do.end25:                                         ; No predecessors!
  br label %while.cond

while.end:                                        ; preds = %while.cond
  %27 = load atomic i64, ptr @qemu_mutex_lock_func monotonic, align 8
  store i64 %27, ptr %atomic-temp, align 8
  %28 = load ptr, ptr %atomic-temp, align 8
  store ptr %28, ptr %tmp, align 8
  %29 = load ptr, ptr %tmp, align 8
  store ptr %29, ptr %_f, align 8
  %30 = load ptr, ptr %_f, align 8
  %31 = load ptr, ptr %s.addr, align 8
  %lock26 = getelementptr inbounds %struct.BDRVBlkdebugState, ptr %31, i32 0, i32 13
  call void %30(ptr noundef %lock26, ptr noundef @.str.12, i32 noundef 916)
  %32 = load i8, ptr %all.addr, align 1
  %tobool27 = trunc i8 %32 to i1
  br i1 %tobool27, label %if.then28, label %if.end29

if.then28:                                        ; preds = %while.end
  br label %retry

if.end29:                                         ; preds = %while.end
  store i32 0, ptr %retval, align 4
  br label %return

if.end30:                                         ; preds = %for.body
  br label %for.inc

for.inc:                                          ; preds = %if.end30
  %33 = load ptr, ptr %r, align 8
  %next31 = getelementptr inbounds %struct.BlkdebugSuspendedReq, ptr %33, i32 0, i32 2
  %le_next32 = getelementptr inbounds %struct.anon.23, ptr %next31, i32 0, i32 0
  %34 = load ptr, ptr %le_next32, align 8
  store ptr %34, ptr %r, align 8
  br label %for.cond, !llvm.loop !16

for.end:                                          ; preds = %for.cond
  store i32 -2, ptr %retval, align 4
  br label %return

return:                                           ; preds = %for.end, %if.end29
  %35 = load i32, ptr %retval, align 4
  ret i32 %35
}