; Function Attrs: nounwind sspstrong uwtable
define internal fastcc range(i32 -2, 1) i32 @resume_req_by_tag(ptr noundef %s, ptr noundef readonly captures(none) %tag, i1 noundef zeroext %all) unnamed_addr #0 {
entry:
  %suspended_reqs = getelementptr inbounds nuw i8, ptr %s, i64 480
  %lock = getelementptr inbounds nuw i8, ptr %s, i64 488
  %r.018.us21 = load ptr, ptr %suspended_reqs, align 8
  %tobool.not19.us22 = icmp eq ptr %r.018.us21, null
  br i1 %all, label %entry.split.us, label %retry

entry.split.us:                                   ; preds = %entry
  br i1 %tobool.not19.us22, label %return, label %for.body.us

for.body.us:                                      ; preds = %entry.split.us, %for.body.us.backedge
  %r.020.us = phi ptr [ %r.020.us.be, %for.body.us.backedge ], [ %r.018.us21, %entry.split.us ]
  %tag1.us = getelementptr inbounds nuw i8, ptr %r.020.us, i64 8
  %0 = load ptr, ptr %tag1.us, align 8
  %call.us = tail call i32 @strcmp(ptr noundef nonnull dereferenceable(1) %0, ptr noundef nonnull dereferenceable(1) %tag) #14
  %tobool2.not.us = icmp eq i32 %call.us, 0
  br i1 %tobool2.not.us, label %if.then.us, label %for.inc.us

for.inc.us:                                       ; preds = %for.body.us
  %next31.us = getelementptr inbounds nuw i8, ptr %r.020.us, i64 16
  %r.0.us = load ptr, ptr %next31.us, align 8
  %tobool.not.us = icmp eq ptr %r.0.us, null
  br i1 %tobool.not.us, label %return, label %for.body.us.backedge

for.body.us.backedge:                             ; preds = %for.inc.us, %if.end14.us
  %r.020.us.be = phi ptr [ %r.0.us, %for.inc.us ], [ %r.018.us, %if.end14.us ]
  br label %for.body.us, !llvm.loop !15

if.then.us:                                       ; preds = %for.body.us
  %tag1.us.le = getelementptr inbounds nuw i8, ptr %r.020.us, i64 8
  %1 = load ptr, ptr %r.020.us, align 8
  %2 = load i8, ptr @qtest_allowed, align 1
  %tobool.i.us = trunc i8 %2 to i1
  br i1 %tobool.i.us, label %do.body.us, label %if.then5.us

if.then5.us:                                      ; preds = %if.then.us
  %call7.us = tail call i32 (ptr, ...) @printf(ptr noundef nonnull dereferenceable(1) @.str.54, ptr noundef nonnull %0)
  br label %do.body.us

do.body.us:                                       ; preds = %if.then5.us, %if.then.us
  %next.us = getelementptr inbounds nuw i8, ptr %r.020.us, i64 16
  %3 = load ptr, ptr %next.us, align 8
  %cmp.not.us = icmp eq ptr %3, null
  %le_prev18.us.phi.trans.insert = getelementptr inbounds nuw i8, ptr %r.020.us, i64 24
  %.pre33 = load ptr, ptr %le_prev18.us.phi.trans.insert, align 8
  br i1 %cmp.not.us, label %if.end14.us, label %if.then8.us

if.then8.us:                                      ; preds = %do.body.us
  %le_prev13.us = getelementptr inbounds nuw i8, ptr %3, i64 24
  store ptr %.pre33, ptr %le_prev13.us, align 8
  %.pre32 = load ptr, ptr %next.us, align 8
  br label %if.end14.us

if.end14.us:                                      ; preds = %do.body.us, %if.then8.us
  %4 = phi ptr [ %.pre32, %if.then8.us ], [ null, %do.body.us ]
  store ptr %4, ptr %.pre33, align 8
  tail call void @llvm.memset.p0.i64(ptr noundef nonnull align 8 dereferenceable(16) %next.us, i8 0, i64 16, i1 false)
  %5 = load ptr, ptr %tag1.us.le, align 8
  tail call void @g_free(ptr noundef %5) #13
  tail call void @g_free(ptr noundef nonnull %r.020.us) #13
  tail call void @qemu_mutex_unlock_impl(ptr noundef nonnull %lock, ptr noundef nonnull @.str.12, i32 noundef 914) #13
  tail call void @qemu_coroutine_enter(ptr noundef %1) #13
  %6 = load atomic i64, ptr @qemu_mutex_lock_func monotonic, align 8
  %7 = inttoptr i64 %6 to ptr
  tail call void %7(ptr noundef nonnull %lock, ptr noundef nonnull @.str.12, i32 noundef 916) #13
  %r.018.us = load ptr, ptr %suspended_reqs, align 8
  %tobool.not19.us = icmp eq ptr %r.018.us, null
  br i1 %tobool.not19.us, label %return, label %for.body.us.backedge

retry:                                            ; preds = %entry
  br i1 %tobool.not19.us22, label %return, label %for.body

for.body:                                         ; preds = %retry, %for.inc
  %r.020 = phi ptr [ %r.0, %for.inc ], [ %r.018.us21, %retry ]
  %tag1 = getelementptr inbounds nuw i8, ptr %r.020, i64 8
  %8 = load ptr, ptr %tag1, align 8
  %call = tail call i32 @strcmp(ptr noundef nonnull dereferenceable(1) %8, ptr noundef nonnull dereferenceable(1) %tag) #14
  %tobool2.not = icmp eq i32 %call, 0
  br i1 %tobool2.not, label %if.then, label %for.inc

if.then:                                          ; preds = %for.body
  %tag1.le = getelementptr inbounds nuw i8, ptr %r.020, i64 8
  %9 = load ptr, ptr %r.020, align 8
  %10 = load i8, ptr @qtest_allowed, align 1
  %tobool.i = trunc i8 %10 to i1
  br i1 %tobool.i, label %do.body, label %if.then5

if.then5:                                         ; preds = %if.then
  %call7 = tail call i32 (ptr, ...) @printf(ptr noundef nonnull dereferenceable(1) @.str.54, ptr noundef nonnull %8)
  br label %do.body

do.body:                                          ; preds = %if.then, %if.then5
  %next = getelementptr inbounds nuw i8, ptr %r.020, i64 16
  %11 = load ptr, ptr %next, align 8
  %cmp.not = icmp eq ptr %11, null
  %le_prev18.phi.trans.insert = getelementptr inbounds nuw i8, ptr %r.020, i64 24
  %.pre31 = load ptr, ptr %le_prev18.phi.trans.insert, align 8
  br i1 %cmp.not, label %if.end14, label %if.then8

if.then8:                                         ; preds = %do.body
  %le_prev13 = getelementptr inbounds nuw i8, ptr %11, i64 24
  store ptr %.pre31, ptr %le_prev13, align 8
  %.pre = load ptr, ptr %next, align 8
  br label %if.end14

if.end14:                                         ; preds = %do.body, %if.then8
  %12 = phi ptr [ %.pre, %if.then8 ], [ null, %do.body ]
  store ptr %12, ptr %.pre31, align 8
  tail call void @llvm.memset.p0.i64(ptr noundef nonnull align 8 dereferenceable(16) %next, i8 0, i64 16, i1 false)
  %13 = load ptr, ptr %tag1.le, align 8
  tail call void @g_free(ptr noundef %13) #13
  tail call void @g_free(ptr noundef nonnull %r.020) #13
  tail call void @qemu_mutex_unlock_impl(ptr noundef nonnull %lock, ptr noundef nonnull @.str.12, i32 noundef 914) #13
  tail call void @qemu_coroutine_enter(ptr noundef %9) #13
  %14 = load atomic i64, ptr @qemu_mutex_lock_func monotonic, align 8
  %15 = inttoptr i64 %14 to ptr
  tail call void %15(ptr noundef nonnull %lock, ptr noundef nonnull @.str.12, i32 noundef 916) #13
  br label %return

for.inc:                                          ; preds = %for.body
  %next31 = getelementptr inbounds nuw i8, ptr %r.020, i64 16
  %r.0 = load ptr, ptr %next31, align 8
  %tobool.not = icmp eq ptr %r.0, null
  br i1 %tobool.not, label %return, label %for.body, !llvm.loop !15

return:                                           ; preds = %for.inc, %if.end14.us, %for.inc.us, %retry, %entry.split.us, %if.end14
  %retval.0 = phi i32 [ 0, %if.end14 ], [ -2, %entry.split.us ], [ -2, %retry ], [ -2, %for.inc.us ], [ -2, %if.end14.us ], [ -2, %for.inc ]
  ret i32 %retval.0
}